target datalayout = "e-m:e-p270:32:32-p271:32:32-p272:64:64-i64:64-i128:128-f80:128-n8:16:32:64-S128"
target triple = "x86_64-pc-linux-gnu"

%"class.gmx::SimdFloat" = type { <8 x float> }
%"struct.gmx::NbnxmPairlistCpuWork" = type { %"struct.gmx::gmx_cache_protect_t", %"struct.gmx::NbnxmPairlistCpuWork::IClusterData", %"class.std::vector.5", i32, i32, %"struct.gmx::gmx_cache_protect_t" }
%"struct.gmx::NbnxmPairlistCpuWork::IClusterData" = type { %"class.std::vector", %"class.std::vector.0", %"class.std::vector.2" }
%"class.std::vector" = type { %"struct.std::_Vector_base" }
%"struct.std::_Vector_base" = type { %"struct.std::_Vector_base<gmx::BoundingBox, gmx::Allocator<gmx::BoundingBox, gmx::AlignedAllocationPolicy>>::_Vector_impl" }
%"struct.std::_Vector_base<gmx::BoundingBox, gmx::Allocator<gmx::BoundingBox, gmx::AlignedAllocationPolicy>>::_Vector_impl" = type { %"struct.std::_Vector_base<gmx::BoundingBox, gmx::Allocator<gmx::BoundingBox, gmx::AlignedAllocationPolicy>>::_Vector_impl_data" }
%"struct.std::_Vector_base<gmx::BoundingBox, gmx::Allocator<gmx::BoundingBox, gmx::AlignedAllocationPolicy>>::_Vector_impl_data" = type { ptr, ptr, ptr }
%"class.std::vector.0" = type { %"struct.std::_Vector_base.1" }
%"struct.std::_Vector_base.1" = type { %"struct.std::_Vector_base<float, std::allocator<float>>::_Vector_impl" }
%"struct.std::_Vector_base<float, std::allocator<float>>::_Vector_impl" = type { %"struct.std::_Vector_base<float, std::allocator<float>>::_Vector_impl_data" }
%"struct.std::_Vector_base<float, std::allocator<float>>::_Vector_impl_data" = type { ptr, ptr, ptr }
%"class.std::vector.2" = type { %"struct.std::_Vector_base.3" }
%"struct.std::_Vector_base.3" = type { %"struct.std::_Vector_base<float, gmx::Allocator<float, gmx::AlignedAllocationPolicy>>::_Vector_impl" }
%"struct.std::_Vector_base<float, gmx::Allocator<float, gmx::AlignedAllocationPolicy>>::_Vector_impl" = type { %"struct.std::_Vector_base<float, gmx::Allocator<float, gmx::AlignedAllocationPolicy>>::_Vector_impl_data" }
%"struct.std::_Vector_base<float, gmx::Allocator<float, gmx::AlignedAllocationPolicy>>::_Vector_impl_data" = type { ptr, ptr, ptr }
%"class.std::vector.5" = type { %"struct.std::_Vector_base.6" }
%"struct.std::_Vector_base.6" = type { %"struct.std::_Vector_base<gmx::nbnxn_cj_t, std::allocator<gmx::nbnxn_cj_t>>::_Vector_impl" }
%"struct.std::_Vector_base<gmx::nbnxn_cj_t, std::allocator<gmx::nbnxn_cj_t>>::_Vector_impl" = type { %"struct.std::_Vector_base<gmx::nbnxn_cj_t, std::allocator<gmx::nbnxn_cj_t>>::_Vector_impl_data" }
%"struct.std::_Vector_base<gmx::nbnxn_cj_t, std::allocator<gmx::nbnxn_cj_t>>::_Vector_impl_data" = type { ptr, ptr, ptr }
%"struct.gmx::gmx_cache_protect_t" = type { [16 x i32] }
%"class.gmx::BasicVector" = type { [3 x float] }
%struct.__mm_broadcast_ss_struct = type { float }

; Function Attrs: alwaysinline mustprogress nounwind uwtable
define internal noundef <8 x float> @_ZL13_mm256_set_psffffffff(float noundef %0, float noundef %1, float noundef %2, float noundef %3, float noundef %4, float noundef %5, float noundef %6, float noundef %7) #6 {
  %9 = alloca float, align 4
  %10 = alloca float, align 4
  %11 = alloca float, align 4
  %12 = alloca float, align 4
  %13 = alloca float, align 4
  %14 = alloca float, align 4
  %15 = alloca float, align 4
  %16 = alloca float, align 4
  %17 = alloca <8 x float>, align 32
  store float %0, ptr %9, align 4, !tbaa !15
  store float %1, ptr %10, align 4, !tbaa !15
  store float %2, ptr %11, align 4, !tbaa !15
  store float %3, ptr %12, align 4, !tbaa !15
  store float %4, ptr %13, align 4, !tbaa !15
  store float %5, ptr %14, align 4, !tbaa !15
  store float %6, ptr %15, align 4, !tbaa !15
  store float %7, ptr %16, align 4, !tbaa !15
  %18 = load float, ptr %16, align 4, !tbaa !15
  %19 = insertelement <8 x float> poison, float %18, i32 0
  %20 = load float, ptr %15, align 4, !tbaa !15
  %21 = insertelement <8 x float> %19, float %20, i32 1
  %22 = load float, ptr %14, align 4, !tbaa !15
  %23 = insertelement <8 x float> %21, float %22, i32 2
  %24 = load float, ptr %13, align 4, !tbaa !15
  %25 = insertelement <8 x float> %23, float %24, i32 3
  %26 = load float, ptr %12, align 4, !tbaa !15
  %27 = insertelement <8 x float> %25, float %26, i32 4
  %28 = load float, ptr %11, align 4, !tbaa !15
  %29 = insertelement <8 x float> %27, float %28, i32 5
  %30 = load float, ptr %10, align 4, !tbaa !15
  %31 = insertelement <8 x float> %29, float %30, i32 6
  %32 = load float, ptr %9, align 4, !tbaa !15
  %33 = insertelement <8 x float> %31, float %32, i32 7
  store <8 x float> %33, ptr %17, align 32, !tbaa !24
  %34 = load <8 x float>, ptr %17, align 32, !tbaa !24
  ret <8 x float> %34
}

; Function Attrs: alwaysinline mustprogress nounwind uwtable
define internal void @_ZL15_mm256_store_psPfDv8_f(ptr noundef %0, <8 x float> noundef %1) #6 {
  %3 = alloca ptr, align 8
  %4 = alloca <8 x float>, align 32
  store ptr %0, ptr %3, align 8, !tbaa !11
  store <8 x float> %1, ptr %4, align 32, !tbaa !24
  %5 = load <8 x float>, ptr %4, align 32, !tbaa !24
  %6 = load ptr, ptr %3, align 8, !tbaa !11
  store <8 x float> %5, ptr %6, align 32, !tbaa !24
  ret void
}

; Function Attrs: alwaysinline mustprogress nounwind uwtable
define internal noundef <8 x float> @_ZL13_mm256_add_psDv8_fS_(<8 x float> noundef %0, <8 x float> noundef %1) #6 {
  %3 = alloca <8 x float>, align 32
  %4 = alloca <8 x float>, align 32
  store <8 x float> %0, ptr %3, align 32, !tbaa !24
  store <8 x float> %1, ptr %4, align 32, !tbaa !24
  %5 = load <8 x float>, ptr %3, align 32, !tbaa !24
  %6 = load <8 x float>, ptr %4, align 32, !tbaa !24
  %7 = fadd <8 x float> %5, %6
  ret <8 x float> %7
}

; Function Attrs: alwaysinline mustprogress uwtable
define internal noundef <8 x float> @_ZL14_mm256_set1_psf(float noundef %0) #7 {
  %2 = alloca float, align 4
  store float %0, ptr %2, align 4, !tbaa !15
  %3 = load float, ptr %2, align 4, !tbaa !15
  %4 = load float, ptr %2, align 4, !tbaa !15
  %5 = load float, ptr %2, align 4, !tbaa !15
  %6 = load float, ptr %2, align 4, !tbaa !15
  %7 = load float, ptr %2, align 4, !tbaa !15
  %8 = load float, ptr %2, align 4, !tbaa !15
  %9 = load float, ptr %2, align 4, !tbaa !15
  %10 = load float, ptr %2, align 4, !tbaa !15
  %11 = call noundef <8 x float> @_ZL13_mm256_set_psffffffff(float noundef %3, float noundef %4, float noundef %5, float noundef %6, float noundef %7, float noundef %8, float noundef %9, float noundef %10)
  ret <8 x float> %11
}

; Function Attrs: mustprogress nounwind uwtable
define linkonce_odr void @_ZN3gmx9SimdFloatC2EDv8_f(ptr noundef nonnull align 32 dereferenceable(32) %0, <8 x float> noundef %1) unnamed_addr #8 comdat align 2 {
  %3 = alloca ptr, align 8
  %4 = alloca <8 x float>, align 32
  store ptr %0, ptr %3, align 8, !tbaa !25
  store <8 x float> %1, ptr %4, align 32, !tbaa !24
  %5 = load ptr, ptr %3, align 8
  %6 = getelementptr inbounds nuw %"class.gmx::SimdFloat", ptr %5, i32 0, i32 0
  %7 = load <8 x float>, ptr %4, align 32, !tbaa !24
  store <8 x float> %7, ptr %6, align 32, !tbaa !24
  ret void
}

; Function Attrs: alwaysinline mustprogress nounwind uwtable
define internal noundef <8 x float> @_ZL22_mm256_castps128_ps256Dv4_f(<4 x float> noundef %0) #6 {
  %2 = alloca <4 x float>, align 16
  store <4 x float> %0, ptr %2, align 16, !tbaa !24
  %3 = load <4 x float>, ptr %2, align 16, !tbaa !24
  %4 = freeze <4 x float> poison
  %5 = shufflevector <4 x float> %3, <4 x float> %4, <8 x i32> <i32 0, i32 1, i32 2, i32 3, i32 4, i32 5, i32 6, i32 7>
  ret <8 x float> %5
}

; Function Attrs: alwaysinline mustprogress nounwind uwtable
define internal noundef <4 x float> @_ZL16_mm_broadcast_ssPKf(ptr noundef %0) #9 {
  %2 = alloca ptr, align 8
  %3 = alloca float, align 4
  %4 = alloca <4 x float>, align 16
  store ptr %0, ptr %2, align 8, !tbaa !11
  call void @llvm.lifetime.start.p0(i64 4, ptr %3) #19
  %5 = load ptr, ptr %2, align 8, !tbaa !11
  %6 = getelementptr inbounds nuw %struct.__mm_broadcast_ss_struct, ptr %5, i32 0, i32 0
  %7 = load float, ptr %6, align 1, !tbaa !24
  store float %7, ptr %3, align 4, !tbaa !15
  %8 = load float, ptr %3, align 4, !tbaa !15
  %9 = insertelement <4 x float> poison, float %8, i32 0
  %10 = load float, ptr %3, align 4, !tbaa !15
  %11 = insertelement <4 x float> %9, float %10, i32 1
  %12 = load float, ptr %3, align 4, !tbaa !15
  %13 = insertelement <4 x float> %11, float %12, i32 2
  %14 = load float, ptr %3, align 4, !tbaa !15
  %15 = insertelement <4 x float> %13, float %14, i32 3
  store <4 x float> %15, ptr %4, align 16, !tbaa !24
  %16 = load <4 x float>, ptr %4, align 16, !tbaa !24
  call void @llvm.lifetime.end.p0(i64 4, ptr %3) #19
  ret <4 x float> %16
}

; Function Attrs: mustprogress nounwind uwtable
define linkonce_odr noundef ptr @_ZNKSt6vectorIfN3gmx9AllocatorIfNS0_23AlignedAllocationPolicyEEEE11_M_data_ptrIfEEPT_S7_(ptr noundef nonnull align 8 dereferenceable(24) %0, ptr noundef %1) #3 comdat align 2 {
  %3 = alloca ptr, align 8
  %4 = alloca ptr, align 8
  store ptr %0, ptr %3, align 8, !tbaa !20
  store ptr %1, ptr %4, align 8, !tbaa !11
  %5 = load ptr, ptr %4, align 8, !tbaa !11
  ret ptr %5
}

; Function Attrs: inlinehint mustprogress uwtable
define internal x86_vectorcallcc void @_ZN3gmxL5storeEPfNS_9SimdFloatE(ptr noundef %0, <8 x float> %1) #1 {
  %3 = alloca %"class.gmx::SimdFloat", align 32
  %4 = alloca ptr, align 8
  %5 = getelementptr inbounds nuw %"class.gmx::SimdFloat", ptr %3, i32 0, i32 0
  store <8 x float> %1, ptr %5, align 32
  store ptr %0, ptr %4, align 8, !tbaa !11
  %6 = load ptr, ptr %4, align 8, !tbaa !11
  %7 = getelementptr inbounds nuw %"class.gmx::SimdFloat", ptr %3, i32 0, i32 0
  %8 = load <8 x float>, ptr %7, align 32, !tbaa !24
  call void @_ZL15_mm256_store_psPfDv8_f(ptr noundef %6, <8 x float> noundef %8)
  ret void
}

; Function Attrs: inlinehint mustprogress uwtable
define internal x86_vectorcallcc <8 x float> @_ZN3gmxplENS_9SimdFloatES0_(<8 x float> %0, <8 x float> %1) #1 {
  %3 = alloca %"class.gmx::SimdFloat", align 32
  %4 = alloca %"class.gmx::SimdFloat", align 32
  %5 = alloca %"class.gmx::SimdFloat", align 32
  %6 = getelementptr inbounds nuw %"class.gmx::SimdFloat", ptr %4, i32 0, i32 0
  store <8 x float> %0, ptr %6, align 32
  %7 = getelementptr inbounds nuw %"class.gmx::SimdFloat", ptr %5, i32 0, i32 0
  store <8 x float> %1, ptr %7, align 32
  %8 = getelementptr inbounds nuw %"class.gmx::SimdFloat", ptr %4, i32 0, i32 0
  %9 = load <8 x float>, ptr %8, align 32, !tbaa !24
  %10 = getelementptr inbounds nuw %"class.gmx::SimdFloat", ptr %5, i32 0, i32 0
  %11 = load <8 x float>, ptr %10, align 32, !tbaa !24
  %12 = call noundef <8 x float> @_ZL13_mm256_add_psDv8_fS_(<8 x float> noundef %9, <8 x float> noundef %11)
  call void @_ZN3gmx9SimdFloatC2EDv8_f(ptr noundef nonnull align 32 dereferenceable(32) %3, <8 x float> noundef %12)
  %13 = getelementptr inbounds nuw %"class.gmx::SimdFloat", ptr %3, i32 0, i32 0
  %14 = load <8 x float>, ptr %13, align 32
  ret <8 x float> %14
}

; Function Attrs: mustprogress uwtable
define linkonce_odr void @_ZN3gmx9SimdFloatC2Ef(ptr noundef nonnull align 32 dereferenceable(32) %0, float noundef %1) unnamed_addr #5 comdat align 2 {
  %3 = alloca ptr, align 8
  %4 = alloca float, align 4
  store ptr %0, ptr %3, align 8, !tbaa !25
  store float %1, ptr %4, align 4, !tbaa !15
  %5 = load ptr, ptr %3, align 8
  %6 = getelementptr inbounds nuw %"class.gmx::SimdFloat", ptr %5, i32 0, i32 0
  %7 = load float, ptr %4, align 4, !tbaa !15
  %8 = call noundef <8 x float> @_ZL14_mm256_set1_psf(float noundef %7)
  store <8 x float> %8, ptr %6, align 32, !tbaa !24
  ret void
}

; Function Attrs: mustprogress nounwind uwtable
define linkonce_odr noundef float @_ZNK3gmx11BasicVectorIfEixEi(ptr noundef nonnull align 4 dereferenceable(12) %0, i32 noundef %1) #3 comdat align 2 {
  %3 = alloca ptr, align 8
  %4 = alloca i32, align 4
  store ptr %0, ptr %3, align 8, !tbaa !8
  store i32 %1, ptr %4, align 4, !tbaa !4
  %5 = load ptr, ptr %3, align 8
  %6 = getelementptr inbounds nuw %"class.gmx::BasicVector", ptr %5, i32 0, i32 0
  %7 = load i32, ptr %4, align 4, !tbaa !4
  %8 = sext i32 %7 to i64
  %9 = getelementptr inbounds [3 x float], ptr %6, i64 0, i64 %8
  %10 = load float, ptr %9, align 4, !tbaa !15
  ret float %10
}

; Function Attrs: inlinehint mustprogress uwtable
define internal x86_vectorcallcc <8 x float> @_ZN3gmxL15loadU1DualHsimdEPKf(ptr noundef %0) #1 {
  %2 = alloca %"class.gmx::SimdFloat", align 32
  %3 = alloca ptr, align 8
  %4 = alloca <4 x float>, align 16
  %5 = alloca <4 x float>, align 16
  store ptr %0, ptr %3, align 8, !tbaa !11
  call void @llvm.lifetime.start.p0(i64 16, ptr %4) #19
  call void @llvm.lifetime.start.p0(i64 16, ptr %5) #19
  %6 = load ptr, ptr %3, align 8, !tbaa !11
  %7 = call noundef <4 x float> @_ZL16_mm_broadcast_ssPKf(ptr noundef %6)
  store <4 x float> %7, ptr %4, align 16, !tbaa !24
  %8 = load ptr, ptr %3, align 8, !tbaa !11
  %9 = getelementptr inbounds float, ptr %8, i64 1
  %10 = call noundef <4 x float> @_ZL16_mm_broadcast_ssPKf(ptr noundef %9)
  store <4 x float> %10, ptr %5, align 16, !tbaa !24
  %11 = load <4 x float>, ptr %4, align 16, !tbaa !24
  %12 = call noundef <8 x float> @_ZL22_mm256_castps128_ps256Dv4_f(<4 x float> noundef %11)
  %13 = load <4 x float>, ptr %5, align 16, !tbaa !24
  %14 = shufflevector <4 x float> %13, <4 x float> poison, <8 x i32> <i32 0, i32 1, i32 2, i32 3, i32 4, i32 5, i32 6, i32 7>
  %15 = shufflevector <8 x float> %12, <8 x float> %14, <8 x i32> <i32 0, i32 1, i32 2, i32 3, i32 8, i32 9, i32 10, i32 11>
  call void @_ZN3gmx9SimdFloatC2EDv8_f(ptr noundef nonnull align 32 dereferenceable(32) %2, <8 x float> noundef %15)
  call void @llvm.lifetime.end.p0(i64 16, ptr %5) #19
  call void @llvm.lifetime.end.p0(i64 16, ptr %4) #19
  %16 = getelementptr inbounds nuw %"class.gmx::SimdFloat", ptr %2, i32 0, i32 0
  %17 = load <8 x float>, ptr %16, align 32
  ret <8 x float> %17
}

; Function Attrs: inlinehint mustprogress nounwind uwtable
define internal noundef i32 @_ZN3gmxL12xIndexFromCiILNS_25ClusterDistanceKernelTypeE2EEEii(i32 noundef %0) #4 {
  %2 = alloca i32, align 4
  %3 = alloca i32, align 4
  %4 = alloca i32, align 4
  %5 = alloca i32, align 4
  store i32 %0, ptr %2, align 4, !tbaa !4
  call void @llvm.lifetime.start.p0(i64 4, ptr %3) #19
  store i32 4, ptr %3, align 4, !tbaa !4
  call void @llvm.lifetime.start.p0(i64 4, ptr %4) #19
  store i32 4, ptr %4, align 4, !tbaa !4
  call void @llvm.lifetime.start.p0(i64 4, ptr %5) #19
  store i32 4, ptr %5, align 4, !tbaa !4
  %6 = load i32, ptr %2, align 4, !tbaa !4
  %7 = mul nsw i32 %6, 3
  %8 = mul nsw i32 %7, 4
  call void @llvm.lifetime.end.p0(i64 4, ptr %5) #19
  call void @llvm.lifetime.end.p0(i64 4, ptr %4) #19
  call void @llvm.lifetime.end.p0(i64 4, ptr %3) #19
  ret i32 %8
}

; Function Attrs: mustprogress nounwind uwtable
define linkonce_odr noundef ptr @_ZNSt6vectorIfN3gmx9AllocatorIfNS0_23AlignedAllocationPolicyEEEE4dataEv(ptr noundef nonnull align 8 dereferenceable(24) %0) #3 comdat align 2 {
  %2 = alloca ptr, align 8
  store ptr %0, ptr %2, align 8, !tbaa !20
  %3 = load ptr, ptr %2, align 8
  %4 = getelementptr inbounds nuw %"struct.std::_Vector_base.3", ptr %3, i32 0, i32 0
  %5 = getelementptr inbounds nuw %"struct.std::_Vector_base<float, gmx::Allocator<float, gmx::AlignedAllocationPolicy>>::_Vector_impl_data", ptr %4, i32 0, i32 0
  %6 = load ptr, ptr %5, align 8, !tbaa !22
  %7 = call noundef ptr @_ZNKSt6vectorIfN3gmx9AllocatorIfNS0_23AlignedAllocationPolicyEEEE11_M_data_ptrIfEEPT_S7_(ptr noundef nonnull align 8 dereferenceable(24) %3, ptr noundef %6) #19
  ret ptr %7
}

; Function Attrs: inlinehint mustprogress uwtable
define internal void @_ZN3gmxL23setICellCoordinatesSimdILNS_25ClusterDistanceKernelTypeE2EEEviRKNS_11BasicVectorIfEEiPKfPNS_20NbnxmPairlistCpuWorkE(i32 noundef %0, ptr noundef nonnull align 4 dereferenceable(12) %1, i32 noundef %2, ptr noundef %3, ptr noundef %4) #1 {
  %6 = alloca i32, align 4
  %7 = alloca ptr, align 8
  %8 = alloca i32, align 4
  %9 = alloca ptr, align 8
  %10 = alloca ptr, align 8
  %11 = alloca i32, align 4
  %12 = alloca i32, align 4
  %13 = alloca i32, align 4
  %14 = alloca ptr, align 8
  %15 = alloca i32, align 4
  %16 = alloca i32, align 4
  %17 = alloca i32, align 4
  %18 = alloca i32, align 4
  %19 = alloca %"class.gmx::SimdFloat", align 32
  %20 = alloca %"class.gmx::SimdFloat", align 32
  %21 = alloca %"class.gmx::SimdFloat", align 32
  store i32 %0, ptr %6, align 4, !tbaa !4
  store ptr %1, ptr %7, align 8, !tbaa !8
  store i32 %2, ptr %8, align 4, !tbaa !4
  store ptr %3, ptr %9, align 8, !tbaa !11
  store ptr %4, ptr %10, align 8, !tbaa !13
  call void @llvm.lifetime.start.p0(i64 4, ptr %11) #19
  store i32 4, ptr %11, align 4, !tbaa !4
  call void @llvm.lifetime.start.p0(i64 4, ptr %12) #19
  store i32 4, ptr %12, align 4, !tbaa !4
  call void @llvm.lifetime.start.p0(i64 4, ptr %13) #19
  store i32 4, ptr %13, align 4, !tbaa !4
  call void @llvm.lifetime.start.p0(i64 8, ptr %14) #19
  %22 = load ptr, ptr %10, align 8, !tbaa !13
  %23 = getelementptr inbounds nuw %"struct.gmx::NbnxmPairlistCpuWork", ptr %22, i32 0, i32 1
  %24 = getelementptr inbounds nuw %"struct.gmx::NbnxmPairlistCpuWork::IClusterData", ptr %23, i32 0, i32 2
  %25 = call noundef ptr @_ZNSt6vectorIfN3gmx9AllocatorIfNS0_23AlignedAllocationPolicyEEEE4dataEv(ptr noundef nonnull align 8 dereferenceable(24) %24) #19
  store ptr %25, ptr %14, align 8, !tbaa !11
  call void @llvm.lifetime.start.p0(i64 4, ptr %15) #19
  %26 = load i32, ptr %6, align 4, !tbaa !4
  %27 = call noundef i32 @_ZN3gmxL12xIndexFromCiILNS_25ClusterDistanceKernelTypeE2EEEii(i32 noundef %26)
  store i32 %27, ptr %15, align 4, !tbaa !4
  call void @llvm.lifetime.start.p0(i64 4, ptr %16) #19
  store i32 0, ptr %16, align 4, !tbaa !4
  br label %28

28:                                               ; preds = %75, %5
  %29 = load i32, ptr %16, align 4, !tbaa !4
  %30 = icmp slt i32 %29, 2
  br i1 %30, label %32, label %31

31:                                               ; preds = %28
  store i32 2, ptr %17, align 4
  call void @llvm.lifetime.end.p0(i64 4, ptr %16) #19
  br label %78

32:                                               ; preds = %28
  call void @llvm.lifetime.start.p0(i64 4, ptr %18) #19
  store i32 0, ptr %18, align 4, !tbaa !4
  br label %33

33:                                               ; preds = %71, %32
  %34 = load i32, ptr %18, align 4, !tbaa !4
  %35 = icmp slt i32 %34, 3
  br i1 %35, label %37, label %36

36:                                               ; preds = %33
  store i32 5, ptr %17, align 4
  call void @llvm.lifetime.end.p0(i64 4, ptr %18) #19
  br label %74

37:                                               ; preds = %33
  %38 = load ptr, ptr %14, align 8, !tbaa !11
  %39 = load i32, ptr %16, align 4, !tbaa !4
  %40 = mul nsw i32 %39, 3
  %41 = load i32, ptr %18, align 4, !tbaa !4
  %42 = add nsw i32 %40, %41
  %43 = mul nsw i32 %42, 8
  %44 = sext i32 %43 to i64
  %45 = getelementptr inbounds float, ptr %38, i64 %44
  %46 = load ptr, ptr %9, align 8, !tbaa !11
  %47 = load i32, ptr %15, align 4, !tbaa !4
  %48 = sext i32 %47 to i64
  %49 = getelementptr inbounds float, ptr %46, i64 %48
  %50 = load i32, ptr %18, align 4, !tbaa !4
  %51 = mul nsw i32 %50, 4
  %52 = sext i32 %51 to i64
  %53 = getelementptr inbounds float, ptr %49, i64 %52
  %54 = load i32, ptr %16, align 4, !tbaa !4
  %55 = mul nsw i32 %54, 2
  %56 = sext i32 %55 to i64
  %57 = getelementptr inbounds float, ptr %53, i64 %56
  %58 = call x86_vectorcallcc <8 x float> @_ZN3gmxL15loadU1DualHsimdEPKf(ptr noundef %57)
  %59 = getelementptr inbounds nuw %"class.gmx::SimdFloat", ptr %20, i32 0, i32 0
  store <8 x float> %58, ptr %59, align 32
  %60 = load ptr, ptr %7, align 8, !tbaa !8
  %61 = load i32, ptr %18, align 4, !tbaa !4
  %62 = call noundef float @_ZNK3gmx11BasicVectorIfEixEi(ptr noundef nonnull align 4 dereferenceable(12) %60, i32 noundef %61)
  call void @_ZN3gmx9SimdFloatC2Ef(ptr noundef nonnull align 32 dereferenceable(32) %21, float noundef %62)
  %63 = getelementptr inbounds nuw %"class.gmx::SimdFloat", ptr %20, i32 0, i32 0
  %64 = load <8 x float>, ptr %63, align 32
  %65 = getelementptr inbounds nuw %"class.gmx::SimdFloat", ptr %21, i32 0, i32 0
  %66 = load <8 x float>, ptr %65, align 32
  %67 = call x86_vectorcallcc <8 x float> @_ZN3gmxplENS_9SimdFloatES0_(<8 x float> %64, <8 x float> %66)
  %68 = getelementptr inbounds nuw %"class.gmx::SimdFloat", ptr %19, i32 0, i32 0
  store <8 x float> %67, ptr %68, align 32
  %69 = getelementptr inbounds nuw %"class.gmx::SimdFloat", ptr %19, i32 0, i32 0
  %70 = load <8 x float>, ptr %69, align 32
  call x86_vectorcallcc void @_ZN3gmxL5storeEPfNS_9SimdFloatE(ptr noundef %45, <8 x float> %70)
  br label %71

71:                                               ; preds = %37
  %72 = load i32, ptr %18, align 4, !tbaa !4
  %73 = add nsw i32 %72, 1
  store i32 %73, ptr %18, align 4, !tbaa !4
  br label %33, !llvm.loop !27

74:                                               ; preds = %36
  br label %75

75:                                               ; preds = %74
  %76 = load i32, ptr %16, align 4, !tbaa !4
  %77 = add nsw i32 %76, 1
  store i32 %77, ptr %16, align 4, !tbaa !4
  br label %28, !llvm.loop !28

78:                                               ; preds = %31
  call void @llvm.lifetime.end.p0(i64 4, ptr %15) #19
  call void @llvm.lifetime.end.p0(i64 8, ptr %14) #19
  call void @llvm.lifetime.end.p0(i64 4, ptr %13) #19
  call void @llvm.lifetime.end.p0(i64 4, ptr %12) #19
  call void @llvm.lifetime.end.p0(i64 4, ptr %11) #19
  ret void
}

; Function Attrs: mustprogress uwtable
define void @_ZN3gmx27setICellCoordinatesSimd2xMMEiRKNS_11BasicVectorIfEEiPKfPNS_20NbnxmPairlistCpuWorkE(i32 noundef %0, ptr noundef nonnull align 4 dereferenceable(12) %1, i32 noundef %2, ptr noundef %3, ptr noundef %4) #0 {
  %6 = alloca i32, align 4
  %7 = alloca ptr, align 8
  %8 = alloca i32, align 4
  %9 = alloca ptr, align 8
  %10 = alloca ptr, align 8
  store i32 %0, ptr %6, align 4, !tbaa !4
  store ptr %1, ptr %7, align 8, !tbaa !8
  store i32 %2, ptr %8, align 4, !tbaa !4
  store ptr %3, ptr %9, align 8, !tbaa !11
  store ptr %4, ptr %10, align 8, !tbaa !13
  %11 = load i32, ptr %6, align 4, !tbaa !4
  %12 = load ptr, ptr %7, align 8, !tbaa !8
  %13 = load i32, ptr %8, align 4, !tbaa !4
  %14 = load ptr, ptr %9, align 8, !tbaa !11
  %15 = load ptr, ptr %10, align 8, !tbaa !13
  call void @_ZN3gmxL23setICellCoordinatesSimdILNS_25ClusterDistanceKernelTypeE2EEEviRKNS_11BasicVectorIfEEiPKfPNS_20NbnxmPairlistCpuWorkE(i32 noundef %11, ptr noundef nonnull align 4 dereferenceable(12) %12, i32 noundef %13, ptr noundef %14, ptr noundef %15)
  ret void
}