; Function Attrs: mustprogress nofree norecurse nosync nounwind memory(write, argmem: readwrite, inaccessiblemem: none) uwtable
define void @_ZN3gmx27setICellCoordinatesSimd2xMMEiRKNS_11BasicVectorIfEEiPKfPNS_20NbnxmPairlistCpuWorkE(i32 noundef %0, ptr noundef nonnull readonly align 4 captures(none) dereferenceable(12) %1, i32 noundef %2, ptr noundef readonly captures(none) %3, ptr noundef readonly captures(none) %4) local_unnamed_addr #0 {
  %6 = getelementptr i8, ptr %4, i64 112
  %.val = load ptr, ptr %6, align 8, !tbaa !4
  %7 = mul nsw i32 %0, 12
  %8 = sext i32 %7 to i64
  %9 = getelementptr inbounds float, ptr %3, i64 %8
  br label %.preheader.i

.preheader.i:                                     ; preds = %12, %5
  %10 = phi i1 [ true, %5 ], [ false, %12 ]
  %indvars.iv4.i = phi i64 [ 0, %5 ], [ 1, %12 ]
  %11 = mul nuw nsw i64 %indvars.iv4.i, 3
  %invariant.gep.idx.i = shl nuw nsw i64 %indvars.iv4.i, 3
  %invariant.gep.i = getelementptr inbounds nuw i8, ptr %9, i64 %invariant.gep.idx.i
  br label %13

12:                                               ; preds = %13
  br i1 %10, label %.preheader.i, label %_ZN3gmxL23setICellCoordinatesSimdILNS_25ClusterDistanceKernelTypeE2EEEviRKNS_11BasicVectorIfEEiPKfPNS_20NbnxmPairlistCpuWorkE.exit, !llvm.loop !16

13:                                               ; preds = %13, %.preheader.i
  %indvars.iv.i = phi i64 [ 0, %.preheader.i ], [ %indvars.iv.next.i, %13 ]
  %14 = add nuw nsw i64 %indvars.iv.i, %11
  %.idx.i = shl nuw nsw i64 %14, 5
  %15 = getelementptr inbounds nuw i8, ptr %.val, i64 %.idx.i
  %gep.idx.i = shl nuw nsw i64 %indvars.iv.i, 4
  %gep.i = getelementptr inbounds nuw i8, ptr %invariant.gep.i, i64 %gep.idx.i
  %.val.i = load float, ptr %gep.i, align 1, !tbaa !14
  %16 = getelementptr i8, ptr %gep.i, i64 4
  %.val16.i = load float, ptr %16, align 1, !tbaa !14
  %17 = insertelement <4 x float> poison, float %.val.i, i64 0
  %18 = insertelement <4 x float> poison, float %.val16.i, i64 0
  %19 = shufflevector <4 x float> %17, <4 x float> %18, <8 x i32> <i32 0, i32 0, i32 0, i32 0, i32 4, i32 4, i32 4, i32 4>
  %20 = getelementptr inbounds nuw [3 x float], ptr %1, i64 0, i64 %indvars.iv.i
  %21 = load float, ptr %20, align 4, !tbaa !12
  %22 = insertelement <8 x float> poison, float %21, i64 0
  %23 = shufflevector <8 x float> %22, <8 x float> poison, <8 x i32> zeroinitializer
  %24 = fadd <8 x float> %19, %23
  store <8 x float> %24, ptr %15, align 32, !tbaa !14
  %indvars.iv.next.i = add nuw nsw i64 %indvars.iv.i, 1
  %exitcond.not.i = icmp eq i64 %indvars.iv.next.i, 3
  br i1 %exitcond.not.i, label %12, label %13, !llvm.loop !17

_ZN3gmxL23setICellCoordinatesSimdILNS_25ClusterDistanceKernelTypeE2EEEviRKNS_11BasicVectorIfEEiPKfPNS_20NbnxmPairlistCpuWorkE.exit: ; preds = %12
  ret void
}